; Function Attrs: nounwind uwtable
define hidden void @spl_add_classes(ptr noundef readonly %0, ptr nocapture noundef readonly %1, i1 noundef zeroext %2, i32 noundef %3, i32 noundef %4) local_unnamed_addr #0 {
  %6 = alloca %struct._zval_struct, align 8
  %7 = icmp ne ptr %0, null
  tail call void @llvm.assume(i1 %7)
  call void @llvm.lifetime.start.p0(i64 16, ptr nonnull %6)
  %.not.i = icmp eq i32 %3, 0
  br i1 %.not.i, label %15, label %8

8:                                                ; preds = %5
  %9 = icmp sgt i32 %3, 0
  %10 = getelementptr inbounds i8, ptr %0, i64 28
  %11 = load i32, ptr %10, align 4
  %12 = and i32 %11, %4
  %.not19.i = icmp eq i32 %12, 0
  br i1 %9, label %13, label %14

13:                                               ; preds = %8
  br i1 %.not19.i, label %spl_add_class_name.exit, label %15

14:                                               ; preds = %8
  br i1 %.not19.i, label %15, label %spl_add_class_name.exit

15:                                               ; preds = %14, %13, %5
  %16 = load ptr, ptr %1, align 8
  %17 = getelementptr inbounds i8, ptr %0, i64 8
  %18 = load ptr, ptr %17, align 8
  %19 = tail call ptr @zend_hash_find(ptr noundef %16, ptr noundef %18) #4
  %20 = icmp eq ptr %19, null
  br i1 %20, label %21, label %spl_add_class_name.exit

21:                                               ; preds = %15
  %22 = load ptr, ptr %17, align 8
  store ptr %22, ptr %6, align 8
  %23 = getelementptr inbounds i8, ptr %22, i64 4
  %24 = load i32, ptr %23, align 4
  %25 = and i32 %24, 64
  %.not21.i = icmp eq i32 %25, 0
  br i1 %.not21.i, label %26, label %29

26:                                               ; preds = %21
  %27 = load i32, ptr %22, align 4
  %28 = add i32 %27, 1
  store i32 %28, ptr %22, align 4
  %.pre.i = load ptr, ptr %17, align 8
  br label %29

29:                                               ; preds = %26, %21
  %30 = phi ptr [ %.pre.i, %26 ], [ %22, %21 ]
  %.sink.i = phi i32 [ 262, %26 ], [ 6, %21 ]
  %31 = getelementptr inbounds i8, ptr %6, i64 8
  store i32 %.sink.i, ptr %31, align 8
  %32 = load ptr, ptr %1, align 8
  %33 = call ptr @zend_hash_add(ptr noundef %32, ptr noundef %30, ptr noundef nonnull %6) #4
  br label %spl_add_class_name.exit

spl_add_class_name.exit:                          ; preds = %13, %14, %15, %29
  call void @llvm.lifetime.end.p0(i64 16, ptr nonnull %6)
  br i1 %2, label %34, label %.loopexit

34:                                               ; preds = %spl_add_class_name.exit
  call void @spl_add_interfaces(ptr noundef %1, ptr noundef nonnull %0, i32 noundef %3, i32 noundef %4)
  %35 = getelementptr inbounds i8, ptr %0, i64 16
  %36 = load ptr, ptr %35, align 8
  %.not18 = icmp eq ptr %36, null
  br i1 %.not18, label %.loopexit, label %.lr.ph

.lr.ph:                                           ; preds = %34, %.lr.ph
  %37 = phi ptr [ %39, %.lr.ph ], [ %36, %34 ]
  call void @spl_add_classes(ptr noundef nonnull %37, ptr noundef %1, i1 noundef zeroext true, i32 noundef %3, i32 noundef %4)
  %38 = getelementptr inbounds i8, ptr %37, i64 16
  %39 = load ptr, ptr %38, align 8
  %.not = icmp eq ptr %39, null
  br i1 %.not, label %.loopexit, label %.lr.ph

.loopexit:                                        ; preds = %.lr.ph, %34, %spl_add_class_name.exit
  ret void
}